target datalayout = "e-m:e-p270:32:32-p271:32:32-p272:64:64-i64:64-i128:128-f80:128-n8:16:32:64-S128"
target triple = "x86_64-unknown-linux-gnu"

%"class.pugi::xml_node" = type { ptr }
%"struct.pugi::xml_node_struct" = type { i64, ptr, ptr, ptr, ptr, ptr, ptr, ptr }
%"class.pugi::xml_object_range" = type { %"class.pugi::xml_node_iterator", %"class.pugi::xml_node_iterator" }
%"class.pugi::xml_node_iterator" = type { %"class.pugi::xml_node", %"class.pugi::xml_node" }

; Function Attrs: mustprogress nounwind uwtable
define linkonce_odr hidden void @_ZN4pugi8xml_nodeC2EPNS_15xml_node_structE(ptr noundef nonnull align 8 dereferenceable(8) %this, ptr noundef %p) unnamed_addr #0 comdat align 2 {
entry:
  %this.addr = alloca ptr, align 8
  %p.addr = alloca ptr, align 8
  store ptr %this, ptr %this.addr, align 8
  store ptr %p, ptr %p.addr, align 8
  %this1 = load ptr, ptr %this.addr, align 8
  %_root = getelementptr inbounds %"class.pugi::xml_node", ptr %this1, i32 0, i32 0
  %0 = load ptr, ptr %p.addr, align 8
  store ptr %0, ptr %_root, align 8
  ret void
}

; Function Attrs: mustprogress uwtable
define linkonce_odr hidden void @_ZN4pugi17xml_node_iteratorC2EPNS_15xml_node_structES2_(ptr noundef nonnull align 8 dereferenceable(16) %this, ptr noundef %ref, ptr noundef %parent) unnamed_addr #2 comdat align 2 {
entry:
  %this.addr = alloca ptr, align 8
  %ref.addr = alloca ptr, align 8
  %parent.addr = alloca ptr, align 8
  store ptr %this, ptr %this.addr, align 8
  store ptr %ref, ptr %ref.addr, align 8
  store ptr %parent, ptr %parent.addr, align 8
  %this1 = load ptr, ptr %this.addr, align 8
  %_wrap = getelementptr inbounds %"class.pugi::xml_node_iterator", ptr %this1, i32 0, i32 0
  %0 = load ptr, ptr %ref.addr, align 8
  call void @_ZN4pugi8xml_nodeC2EPNS_15xml_node_structE(ptr noundef nonnull align 8 dereferenceable(8) %_wrap, ptr noundef %0)
  %_parent = getelementptr inbounds %"class.pugi::xml_node_iterator", ptr %this1, i32 0, i32 1
  %1 = load ptr, ptr %parent.addr, align 8
  call void @_ZN4pugi8xml_nodeC2EPNS_15xml_node_structE(ptr noundef nonnull align 8 dereferenceable(8) %_parent, ptr noundef %1)
  ret void
}

; Function Attrs: mustprogress nounwind uwtable
define linkonce_odr hidden void @_ZN4pugi16xml_object_rangeINS_17xml_node_iteratorEEC2ES1_S1_(ptr noundef nonnull align 8 dereferenceable(32) %this, ptr %b.coerce0, ptr %b.coerce1, ptr %e.coerce0, ptr %e.coerce1) unnamed_addr #0 comdat align 2 {
entry:
  %b = alloca %"class.pugi::xml_node_iterator", align 8
  %e = alloca %"class.pugi::xml_node_iterator", align 8
  %this.addr = alloca ptr, align 8
  %0 = getelementptr inbounds { ptr, ptr }, ptr %b, i32 0, i32 0
  store ptr %b.coerce0, ptr %0, align 8
  %1 = getelementptr inbounds { ptr, ptr }, ptr %b, i32 0, i32 1
  store ptr %b.coerce1, ptr %1, align 8
  %2 = getelementptr inbounds { ptr, ptr }, ptr %e, i32 0, i32 0
  store ptr %e.coerce0, ptr %2, align 8
  %3 = getelementptr inbounds { ptr, ptr }, ptr %e, i32 0, i32 1
  store ptr %e.coerce1, ptr %3, align 8
  store ptr %this, ptr %this.addr, align 8
  %this1 = load ptr, ptr %this.addr, align 8
  %_begin = getelementptr inbounds %"class.pugi::xml_object_range", ptr %this1, i32 0, i32 0
  call void @llvm.memcpy.p0.p0.i64(ptr align 8 %_begin, ptr align 8 %b, i64 16, i1 false)
  %_end = getelementptr inbounds %"class.pugi::xml_object_range", ptr %this1, i32 0, i32 1
  call void @llvm.memcpy.p0.p0.i64(ptr align 8 %_end, ptr align 8 %e, i64 16, i1 false)
  ret void
}

; Function Attrs: mustprogress uwtable
define linkonce_odr hidden { ptr, ptr } @_ZNK4pugi8xml_node3endEv(ptr noundef nonnull align 8 dereferenceable(8) %this) #2 comdat align 2 {
entry:
  %retval = alloca %"class.pugi::xml_node_iterator", align 8
  %this.addr = alloca ptr, align 8
  store ptr %this, ptr %this.addr, align 8
  %this1 = load ptr, ptr %this.addr, align 8
  %_root = getelementptr inbounds %"class.pugi::xml_node", ptr %this1, i32 0, i32 0
  %0 = load ptr, ptr %_root, align 8
  call void @_ZN4pugi17xml_node_iteratorC2EPNS_15xml_node_structES2_(ptr noundef nonnull align 8 dereferenceable(16) %retval, ptr noundef null, ptr noundef %0)
  %1 = load { ptr, ptr }, ptr %retval, align 8
  ret { ptr, ptr } %1
}

; Function Attrs: mustprogress uwtable
define linkonce_odr hidden { ptr, ptr } @_ZNK4pugi8xml_node5beginEv(ptr noundef nonnull align 8 dereferenceable(8) %this) #2 comdat align 2 {
entry:
  %retval = alloca %"class.pugi::xml_node_iterator", align 8
  %this.addr = alloca ptr, align 8
  store ptr %this, ptr %this.addr, align 8
  %this1 = load ptr, ptr %this.addr, align 8
  %_root = getelementptr inbounds %"class.pugi::xml_node", ptr %this1, i32 0, i32 0
  %0 = load ptr, ptr %_root, align 8
  %tobool = icmp ne ptr %0, null
  br i1 %tobool, label %cond.true, label %cond.false

cond.true:                                        ; preds = %entry
  %_root2 = getelementptr inbounds %"class.pugi::xml_node", ptr %this1, i32 0, i32 0
  %1 = load ptr, ptr %_root2, align 8
  %first_child = getelementptr inbounds %"struct.pugi::xml_node_struct", ptr %1, i32 0, i32 4
  %2 = load ptr, ptr %first_child, align 8
  %add.ptr = getelementptr inbounds %"struct.pugi::xml_node_struct", ptr %2, i64 0
  br label %cond.end

cond.false:                                       ; preds = %entry
  br label %cond.end

cond.end:                                         ; preds = %cond.false, %cond.true
  %cond = phi ptr [ %add.ptr, %cond.true ], [ null, %cond.false ]
  %_root3 = getelementptr inbounds %"class.pugi::xml_node", ptr %this1, i32 0, i32 0
  %3 = load ptr, ptr %_root3, align 8
  call void @_ZN4pugi17xml_node_iteratorC2EPNS_15xml_node_structES2_(ptr noundef nonnull align 8 dereferenceable(16) %retval, ptr noundef %cond, ptr noundef %3)
  %4 = load { ptr, ptr }, ptr %retval, align 8
  ret { ptr, ptr } %4
}

; Function Attrs: mustprogress nounwind uwtable
define linkonce_odr hidden noundef nonnull align 8 dereferenceable(16) ptr @_ZN4pugi17xml_node_iteratorppEv(ptr noundef nonnull align 8 dereferenceable(16) %this) #0 comdat align 2 {
entry:
  %this.addr = alloca ptr, align 8
  store ptr %this, ptr %this.addr, align 8
  %this1 = load ptr, ptr %this.addr, align 8
  %_wrap = getelementptr inbounds %"class.pugi::xml_node_iterator", ptr %this1, i32 0, i32 0
  %_root = getelementptr inbounds %"class.pugi::xml_node", ptr %_wrap, i32 0, i32 0
  %0 = load ptr, ptr %_root, align 8
  %next_sibling = getelementptr inbounds %"struct.pugi::xml_node_struct", ptr %0, i32 0, i32 6
  %1 = load ptr, ptr %next_sibling, align 8
  %_wrap2 = getelementptr inbounds %"class.pugi::xml_node_iterator", ptr %this1, i32 0, i32 0
  %_root3 = getelementptr inbounds %"class.pugi::xml_node", ptr %_wrap2, i32 0, i32 0
  store ptr %1, ptr %_root3, align 8
  ret ptr %this1
}

; Function Attrs: mustprogress nounwind uwtable
define linkonce_odr hidden noundef nonnull align 8 dereferenceable(8) ptr @_ZNK4pugi17xml_node_iteratordeEv(ptr noundef nonnull align 8 dereferenceable(16) %this) #0 comdat align 2 {
entry:
  %this.addr = alloca ptr, align 8
  store ptr %this, ptr %this.addr, align 8
  %this1 = load ptr, ptr %this.addr, align 8
  %_wrap = getelementptr inbounds %"class.pugi::xml_node_iterator", ptr %this1, i32 0, i32 0
  ret ptr %_wrap
}

; Function Attrs: mustprogress nounwind uwtable
define linkonce_odr hidden noundef zeroext i1 @_ZNK4pugi17xml_node_iteratorneERKS0_(ptr noundef nonnull align 8 dereferenceable(16) %this, ptr noundef nonnull align 8 dereferenceable(16) %rhs) #0 comdat align 2 {
entry:
  %this.addr = alloca ptr, align 8
  %rhs.addr = alloca ptr, align 8
  store ptr %this, ptr %this.addr, align 8
  store ptr %rhs, ptr %rhs.addr, align 8
  %this1 = load ptr, ptr %this.addr, align 8
  %_wrap = getelementptr inbounds %"class.pugi::xml_node_iterator", ptr %this1, i32 0, i32 0
  %_root = getelementptr inbounds %"class.pugi::xml_node", ptr %_wrap, i32 0, i32 0
  %0 = load ptr, ptr %_root, align 8
  %1 = load ptr, ptr %rhs.addr, align 8
  %_wrap2 = getelementptr inbounds %"class.pugi::xml_node_iterator", ptr %1, i32 0, i32 0
  %_root3 = getelementptr inbounds %"class.pugi::xml_node", ptr %_wrap2, i32 0, i32 0
  %2 = load ptr, ptr %_root3, align 8
  %cmp = icmp ne ptr %0, %2
  br i1 %cmp, label %lor.end, label %lor.rhs

lor.rhs:                                          ; preds = %entry
  %_parent = getelementptr inbounds %"class.pugi::xml_node_iterator", ptr %this1, i32 0, i32 1
  %_root4 = getelementptr inbounds %"class.pugi::xml_node", ptr %_parent, i32 0, i32 0
  %3 = load ptr, ptr %_root4, align 8
  %4 = load ptr, ptr %rhs.addr, align 8
  %_parent5 = getelementptr inbounds %"class.pugi::xml_node_iterator", ptr %4, i32 0, i32 1
  %_root6 = getelementptr inbounds %"class.pugi::xml_node", ptr %_parent5, i32 0, i32 0
  %5 = load ptr, ptr %_root6, align 8
  %cmp7 = icmp ne ptr %3, %5
  br label %lor.end

lor.end:                                          ; preds = %lor.rhs, %entry
  %6 = phi i1 [ true, %entry ], [ %cmp7, %lor.rhs ]
  ret i1 %6
}

; Function Attrs: mustprogress nounwind uwtable
define linkonce_odr hidden { ptr, ptr } @_ZNK4pugi16xml_object_rangeINS_17xml_node_iteratorEE3endEv(ptr noundef nonnull align 8 dereferenceable(32) %this) #0 comdat align 2 {
entry:
  %retval = alloca %"class.pugi::xml_node_iterator", align 8
  %this.addr = alloca ptr, align 8
  store ptr %this, ptr %this.addr, align 8
  %this1 = load ptr, ptr %this.addr, align 8
  %_end = getelementptr inbounds %"class.pugi::xml_object_range", ptr %this1, i32 0, i32 1
  call void @llvm.memcpy.p0.p0.i64(ptr align 8 %retval, ptr align 8 %_end, i64 16, i1 false)
  %0 = load { ptr, ptr }, ptr %retval, align 8
  ret { ptr, ptr } %0
}

; Function Attrs: mustprogress nounwind uwtable
define linkonce_odr hidden { ptr, ptr } @_ZNK4pugi16xml_object_rangeINS_17xml_node_iteratorEE5beginEv(ptr noundef nonnull align 8 dereferenceable(32) %this) #0 comdat align 2 {
entry:
  %retval = alloca %"class.pugi::xml_node_iterator", align 8
  %this.addr = alloca ptr, align 8
  store ptr %this, ptr %this.addr, align 8
  %this1 = load ptr, ptr %this.addr, align 8
  %_begin = getelementptr inbounds %"class.pugi::xml_object_range", ptr %this1, i32 0, i32 0
  call void @llvm.memcpy.p0.p0.i64(ptr align 8 %retval, ptr align 8 %_begin, i64 16, i1 false)
  %0 = load { ptr, ptr }, ptr %retval, align 8
  ret { ptr, ptr } %0
}

; Function Attrs: mustprogress uwtable
define linkonce_odr hidden void @_ZNK4pugi8xml_node8childrenEv(ptr noalias sret(%"class.pugi::xml_object_range") align 8 %agg.result, ptr noundef nonnull align 8 dereferenceable(8) %this) #2 comdat align 2 {
entry:
  %this.addr = alloca ptr, align 8
  %agg.tmp = alloca %"class.pugi::xml_node_iterator", align 8
  %agg.tmp2 = alloca %"class.pugi::xml_node_iterator", align 8
  store ptr %this, ptr %this.addr, align 8
  %this1 = load ptr, ptr %this.addr, align 8
  %call = call { ptr, ptr } @_ZNK4pugi8xml_node5beginEv(ptr noundef nonnull align 8 dereferenceable(8) %this1)
  %0 = getelementptr inbounds { ptr, ptr }, ptr %agg.tmp, i32 0, i32 0
  %1 = extractvalue { ptr, ptr } %call, 0
  store ptr %1, ptr %0, align 8
  %2 = getelementptr inbounds { ptr, ptr }, ptr %agg.tmp, i32 0, i32 1
  %3 = extractvalue { ptr, ptr } %call, 1
  store ptr %3, ptr %2, align 8
  %call3 = call { ptr, ptr } @_ZNK4pugi8xml_node3endEv(ptr noundef nonnull align 8 dereferenceable(8) %this1)
  %4 = getelementptr inbounds { ptr, ptr }, ptr %agg.tmp2, i32 0, i32 0
  %5 = extractvalue { ptr, ptr } %call3, 0
  store ptr %5, ptr %4, align 8
  %6 = getelementptr inbounds { ptr, ptr }, ptr %agg.tmp2, i32 0, i32 1
  %7 = extractvalue { ptr, ptr } %call3, 1
  store ptr %7, ptr %6, align 8
  %8 = getelementptr inbounds { ptr, ptr }, ptr %agg.tmp, i32 0, i32 0
  %9 = load ptr, ptr %8, align 8
  %10 = getelementptr inbounds { ptr, ptr }, ptr %agg.tmp, i32 0, i32 1
  %11 = load ptr, ptr %10, align 8
  %12 = getelementptr inbounds { ptr, ptr }, ptr %agg.tmp2, i32 0, i32 0
  %13 = load ptr, ptr %12, align 8
  %14 = getelementptr inbounds { ptr, ptr }, ptr %agg.tmp2, i32 0, i32 1
  %15 = load ptr, ptr %14, align 8
  call void @_ZN4pugi16xml_object_rangeINS_17xml_node_iteratorEEC2ES1_S1_(ptr noundef nonnull align 8 dereferenceable(32) %agg.result, ptr %9, ptr %11, ptr %13, ptr %15)
  ret void
}

; Function Attrs: mustprogress uwtable
define hidden void @_ZN6Assimp11X3DImporter20childrenReadMetadataERN4pugi8xml_nodeEP18X3DNodeElementBaseRKNSt7__cxx1112basic_stringIcSt11char_traitsIcESaIcEEE(ptr noundef nonnull align 8 dereferenceable(120) %this, ptr noundef nonnull align 8 dereferenceable(8) %node, ptr noundef %pParentElement, ptr noundef nonnull align 8 dereferenceable(32) %pNodeName) #2 align 2 {
entry:
  %this.addr = alloca ptr, align 8
  %node.addr = alloca ptr, align 8
  %pParentElement.addr = alloca ptr, align 8
  %pNodeName.addr = alloca ptr, align 8
  %__range1 = alloca ptr, align 8
  %ref.tmp = alloca %"class.pugi::xml_object_range", align 8
  %__begin1 = alloca %"class.pugi::xml_node_iterator", align 8
  %__end1 = alloca %"class.pugi::xml_node_iterator", align 8
  %childNode = alloca %"class.pugi::xml_node", align 8
  store ptr %this, ptr %this.addr, align 8
  store ptr %node, ptr %node.addr, align 8
  store ptr %pParentElement, ptr %pParentElement.addr, align 8
  store ptr %pNodeName, ptr %pNodeName.addr, align 8
  %this1 = load ptr, ptr %this.addr, align 8
  %0 = load ptr, ptr %pParentElement.addr, align 8
  call void @_ZN6Assimp11X3DImporter22ParseHelper_Node_EnterEP18X3DNodeElementBase(ptr noundef nonnull align 8 dereferenceable(120) %this1, ptr noundef %0)
  %1 = load ptr, ptr %node.addr, align 8
  call void @_ZNK4pugi8xml_node8childrenEv(ptr sret(%"class.pugi::xml_object_range") align 8 %ref.tmp, ptr noundef nonnull align 8 dereferenceable(8) %1)
  store ptr %ref.tmp, ptr %__range1, align 8
  %2 = load ptr, ptr %__range1, align 8
  %call = call { ptr, ptr } @_ZNK4pugi16xml_object_rangeINS_17xml_node_iteratorEE5beginEv(ptr noundef nonnull align 8 dereferenceable(32) %2)
  %3 = getelementptr inbounds { ptr, ptr }, ptr %__begin1, i32 0, i32 0
  %4 = extractvalue { ptr, ptr } %call, 0
  store ptr %4, ptr %3, align 8
  %5 = getelementptr inbounds { ptr, ptr }, ptr %__begin1, i32 0, i32 1
  %6 = extractvalue { ptr, ptr } %call, 1
  store ptr %6, ptr %5, align 8
  %7 = load ptr, ptr %__range1, align 8
  %call2 = call { ptr, ptr } @_ZNK4pugi16xml_object_rangeINS_17xml_node_iteratorEE3endEv(ptr noundef nonnull align 8 dereferenceable(32) %7)
  %8 = getelementptr inbounds { ptr, ptr }, ptr %__end1, i32 0, i32 0
  %9 = extractvalue { ptr, ptr } %call2, 0
  store ptr %9, ptr %8, align 8
  %10 = getelementptr inbounds { ptr, ptr }, ptr %__end1, i32 0, i32 1
  %11 = extractvalue { ptr, ptr } %call2, 1
  store ptr %11, ptr %10, align 8
  br label %for.cond

for.cond:                                         ; preds = %for.inc, %entry
  %call3 = call noundef zeroext i1 @_ZNK4pugi17xml_node_iteratorneERKS0_(ptr noundef nonnull align 8 dereferenceable(16) %__begin1, ptr noundef nonnull align 8 dereferenceable(16) %__end1)
  br i1 %call3, label %for.body, label %for.end

for.body:                                         ; preds = %for.cond
  %call4 = call noundef nonnull align 8 dereferenceable(8) ptr @_ZNK4pugi17xml_node_iteratordeEv(ptr noundef nonnull align 8 dereferenceable(16) %__begin1)
  call void @llvm.memcpy.p0.p0.i64(ptr align 8 %childNode, ptr align 8 %call4, i64 8, i1 false)
  %call5 = call noundef zeroext i1 @_ZN6Assimp11X3DImporter20checkForMetadataNodeERN4pugi8xml_nodeE(ptr noundef nonnull align 8 dereferenceable(120) %this1, ptr noundef nonnull align 8 dereferenceable(8) %childNode)
  br i1 %call5, label %if.end, label %if.then

if.then:                                          ; preds = %for.body
  %12 = load ptr, ptr %pNodeName.addr, align 8
  call void @_ZN6Assimp11X3DImporter19skipUnsupportedNodeERKNSt7__cxx1112basic_stringIcSt11char_traitsIcESaIcEEERN4pugi8xml_nodeE(ptr noundef nonnull align 8 dereferenceable(120) %this1, ptr noundef nonnull align 8 dereferenceable(32) %12, ptr noundef nonnull align 8 dereferenceable(8) %childNode)
  br label %if.end

if.end:                                           ; preds = %if.then, %for.body
  br label %for.inc

for.inc:                                          ; preds = %if.end
  %call6 = call noundef nonnull align 8 dereferenceable(16) ptr @_ZN4pugi17xml_node_iteratorppEv(ptr noundef nonnull align 8 dereferenceable(16) %__begin1)
  br label %for.cond

for.end:                                          ; preds = %for.cond
  call void @_ZN6Assimp11X3DImporter21ParseHelper_Node_ExitEv(ptr noundef nonnull align 8 dereferenceable(120) %this1)
  ret void
}