; Function Attrs: mustprogress uwtable
define hidden void @_ZN6Assimp11X3DImporter20childrenReadMetadataERN4pugi8xml_nodeEP18X3DNodeElementBaseRKNSt7__cxx1112basic_stringIcSt11char_traitsIcESaIcEEE(ptr noundef nonnull align 8 dereferenceable(120) %this, ptr nocapture noundef nonnull readonly align 8 dereferenceable(8) %node, ptr noundef %pParentElement, ptr noundef nonnull align 8 dereferenceable(32) %pNodeName) local_unnamed_addr #2 align 2 {
entry:
  %childNode = alloca %"class.pugi::xml_node", align 8
  tail call void @_ZN6Assimp11X3DImporter22ParseHelper_Node_EnterEP18X3DNodeElementBase(ptr noundef nonnull align 8 dereferenceable(120) %this, ptr noundef %pParentElement)
  %0 = load ptr, ptr %node, align 8, !noalias !7
  %tobool.not.i.i = icmp eq ptr %0, null
  br i1 %tobool.not.i.i, label %for.end, label %_ZNK4pugi8xml_node8childrenEv.exit

_ZNK4pugi8xml_node8childrenEv.exit:               ; preds = %entry
  %first_child.i.i = getelementptr inbounds i8, ptr %0, i64 32
  %1 = load ptr, ptr %first_child.i.i, align 8, !noalias !7
  %cmp.not.i.not7 = icmp eq ptr %1, null
  br i1 %cmp.not.i.not7, label %for.end, label %for.body

for.body:                                         ; preds = %_ZNK4pugi8xml_node8childrenEv.exit, %for.inc
  %__begin1.sroa.0.08 = phi ptr [ %3, %for.inc ], [ %1, %_ZNK4pugi8xml_node8childrenEv.exit ]
  %2 = ptrtoint ptr %__begin1.sroa.0.08 to i64
  store i64 %2, ptr %childNode, align 8
  %call5 = call noundef zeroext i1 @_ZN6Assimp11X3DImporter20checkForMetadataNodeERN4pugi8xml_nodeE(ptr noundef nonnull align 8 dereferenceable(120) %this, ptr noundef nonnull align 8 dereferenceable(8) %childNode)
  br i1 %call5, label %for.inc, label %if.then

if.then:                                          ; preds = %for.body
  call void @_ZN6Assimp11X3DImporter19skipUnsupportedNodeERKNSt7__cxx1112basic_stringIcSt11char_traitsIcESaIcEEERN4pugi8xml_nodeE(ptr noundef nonnull align 8 dereferenceable(120) %this, ptr noundef nonnull align 8 dereferenceable(32) %pNodeName, ptr noundef nonnull align 8 dereferenceable(8) %childNode)
  br label %for.inc

for.inc:                                          ; preds = %for.body, %if.then
  %next_sibling.i = getelementptr inbounds i8, ptr %__begin1.sroa.0.08, i64 48
  %3 = load ptr, ptr %next_sibling.i, align 8
  %cmp.not.i.not = icmp eq ptr %3, null
  br i1 %cmp.not.i.not, label %for.end, label %for.body

for.end:                                          ; preds = %for.inc, %entry, %_ZNK4pugi8xml_node8childrenEv.exit
  call void @_ZN6Assimp11X3DImporter21ParseHelper_Node_ExitEv(ptr noundef nonnull align 8 dereferenceable(120) %this)
  ret void
}